target datalayout = "e-m:e-p270:32:32-p271:32:32-p272:64:64-i64:64-i128:128-f80:128-n8:16:32:64-S128"
target triple = "x86_64-pc-linux-gnu"

%struct._psqlSettings = type { ptr, i32, ptr, i8, ptr, ptr, %struct.printQueryOpt, ptr, ptr, ptr, i8, i8, i32, i32, ptr, ptr, i8, [4 x ptr], i8, i32, ptr, i8, i32, ptr, ptr, i64, i64, i8, ptr, ptr, ptr, i8, i8, i8, i8, i8, i8, i8, i32, i32, i32, i32, i32, i32, i32, i32, ptr, ptr, ptr, i32, i8, i32 }
%struct.printQueryOpt = type { %struct.printTableOpt, ptr, ptr, ptr, i8, ptr, i32 }
%struct.printTableOpt = type { i32, i16, i32, i32, i16, i16, i32, i8, i8, i8, i8, i64, ptr, %struct.separator, %struct.separator, [2 x i8], i8, ptr, i32, i32, i32, i32, i32, i32 }
%struct.separator = type { ptr, i8 }
%struct.PQExpBufferData = type { ptr, i64, i64 }

@pset = external global %struct._psqlSettings, align 8
@.str.222 = private unnamed_addr constant [59 x i8] c"/******** QUERY *********/\0A%s\0A/************************/\0A\0A\00", align 1
@stdout = external global ptr, align 8
@.str.226 = private unnamed_addr constant [41 x i8] c"SELECT pg_catalog.pg_get_functiondef(%u)\00", align 1
@.str.228 = private unnamed_addr constant [228 x i8] c"SELECT nspname, relname, relkind, pg_catalog.pg_get_viewdef(c.oid, true), c.reloptions AS reloptions, NULL AS checkoption FROM pg_catalog.pg_class c LEFT JOIN pg_catalog.pg_namespace n ON c.relnamespace = n.oid WHERE c.oid = %u\00", align 1
@.str.229 = private unnamed_addr constant [24 x i8] c"CREATE OR REPLACE VIEW \00", align 1
@.str.230 = private unnamed_addr constant [22 x i8] c"\22%s.%s\22 is not a view\00", align 1
@.str.231 = private unnamed_addr constant [4 x i8] c"%s.\00", align 1
@.str.232 = private unnamed_addr constant [9 x i8] c"\0A WITH (\00", align 1
@.str.233 = private unnamed_addr constant [1 x i8] zeroinitializer, align 1
@.str.234 = private unnamed_addr constant [33 x i8] c"could not parse reloptions array\00", align 1
@.str.235 = private unnamed_addr constant [7 x i8] c" AS\0A%s\00", align 1
@.str.236 = private unnamed_addr constant [23 x i8] c"\0A WITH %s CHECK OPTION\00", align 1

; Function Attrs: nounwind uwtable
define internal zeroext i1 @echo_hidden_command(ptr noundef %0) #0 {
  %2 = alloca i1, align 1
  %3 = alloca ptr, align 8
  store ptr %0, ptr %3, align 8
  %4 = load i32, ptr getelementptr inbounds nuw (%struct._psqlSettings, ptr @pset, i32 0, i32 42), align 8
  %5 = icmp ne i32 %4, 0
  br i1 %5, label %6, label %24

6:                                                ; preds = %1
  %7 = load ptr, ptr %3, align 8
  %8 = call i32 (ptr, ...) @pg_printf(ptr noundef @.str.222, ptr noundef %7)
  %9 = load ptr, ptr @stdout, align 8
  %10 = call i32 @fflush(ptr noundef %9)
  %11 = load ptr, ptr getelementptr inbounds nuw (%struct._psqlSettings, ptr @pset, i32 0, i32 28), align 8
  %12 = icmp ne ptr %11, null
  br i1 %12, label %13, label %19

13:                                               ; preds = %6
  %14 = load ptr, ptr getelementptr inbounds nuw (%struct._psqlSettings, ptr @pset, i32 0, i32 28), align 8
  %15 = load ptr, ptr %3, align 8
  %16 = call i32 (ptr, ptr, ...) @pg_fprintf(ptr noundef %14, ptr noundef @.str.222, ptr noundef %15)
  %17 = load ptr, ptr getelementptr inbounds nuw (%struct._psqlSettings, ptr @pset, i32 0, i32 28), align 8
  %18 = call i32 @fflush(ptr noundef %17)
  br label %19

19:                                               ; preds = %13, %6
  %20 = load i32, ptr getelementptr inbounds nuw (%struct._psqlSettings, ptr @pset, i32 0, i32 42), align 8
  %21 = icmp eq i32 %20, 2
  br i1 %21, label %22, label %23

22:                                               ; preds = %19
  store i1 false, ptr %2, align 1
  br label %25

23:                                               ; preds = %19
  br label %24

24:                                               ; preds = %23, %1
  store i1 true, ptr %2, align 1
  br label %25

25:                                               ; preds = %24, %22
  %26 = load i1, ptr %2, align 1
  ret i1 %26
}

; Function Attrs: nounwind uwtable
define internal zeroext i1 @get_create_object_cmd(i32 noundef %0, i32 noundef %1, ptr noundef %2) #0 {
  %4 = alloca i1, align 1
  %5 = alloca i32, align 4
  %6 = alloca i32, align 4
  %7 = alloca ptr, align 8
  %8 = alloca i8, align 1
  %9 = alloca ptr, align 8
  %10 = alloca ptr, align 8
  %11 = alloca i32, align 4
  %12 = alloca ptr, align 8
  %13 = alloca ptr, align 8
  %14 = alloca ptr, align 8
  %15 = alloca ptr, align 8
  %16 = alloca ptr, align 8
  %17 = alloca ptr, align 8
  store i32 %0, ptr %5, align 4
  store i32 %1, ptr %6, align 4
  store ptr %2, ptr %7, align 8
  call void @llvm.lifetime.start.p0(i64 1, ptr %8) #10
  store i8 1, ptr %8, align 1
  call void @llvm.lifetime.start.p0(i64 8, ptr %9) #10
  %18 = call ptr @createPQExpBuffer()
  store ptr %18, ptr %9, align 8
  call void @llvm.lifetime.start.p0(i64 8, ptr %10) #10
  %19 = load i32, ptr %5, align 4
  switch i32 %19, label %33 [
    i32 0, label %20
    i32 1, label %23
  ]

20:                                               ; preds = %3
  %21 = load ptr, ptr %9, align 8
  %22 = load i32, ptr %6, align 4
  call void (ptr, ptr, ...) @printfPQExpBuffer(ptr noundef %21, ptr noundef @.str.226, i32 noundef %22)
  br label %33

23:                                               ; preds = %3
  %24 = load i32, ptr getelementptr inbounds nuw (%struct._psqlSettings, ptr @pset, i32 0, i32 22), align 4
  %25 = icmp sge i32 %24, 90400
  br i1 %25, label %26, label %29

26:                                               ; preds = %23
  %27 = load ptr, ptr %9, align 8
  %28 = load i32, ptr %6, align 4
  call void (ptr, ptr, ...) @printfPQExpBuffer(ptr noundef %27, ptr noundef @.str.227, i32 noundef %28)
  br label %32

29:                                               ; preds = %23
  %30 = load ptr, ptr %9, align 8
  %31 = load i32, ptr %6, align 4
  call void (ptr, ptr, ...) @printfPQExpBuffer(ptr noundef %30, ptr noundef @.str.228, i32 noundef %31)
  br label %32

32:                                               ; preds = %29, %26
  br label %33

33:                                               ; preds = %3, %32, %20
  %34 = load ptr, ptr %9, align 8
  %35 = getelementptr inbounds nuw %struct.PQExpBufferData, ptr %34, i32 0, i32 0
  %36 = load ptr, ptr %35, align 8
  %37 = call zeroext i1 @echo_hidden_command(ptr noundef %36)
  br i1 %37, label %40, label %38

38:                                               ; preds = %33
  %39 = load ptr, ptr %9, align 8
  call void @destroyPQExpBuffer(ptr noundef %39)
  store i1 false, ptr %4, align 1
  store i32 1, ptr %11, align 4
  br label %173

40:                                               ; preds = %33
  %41 = load ptr, ptr @pset, align 8
  %42 = load ptr, ptr %9, align 8
  %43 = getelementptr inbounds nuw %struct.PQExpBufferData, ptr %42, i32 0, i32 0
  %44 = load ptr, ptr %43, align 8
  %45 = call ptr @PQexec(ptr noundef %41, ptr noundef %44)
  store ptr %45, ptr %10, align 8
  %46 = load ptr, ptr %10, align 8
  %47 = call i32 @PQresultStatus(ptr noundef %46)
  %48 = icmp eq i32 %47, 2
  br i1 %48, label %49, label %166

49:                                               ; preds = %40
  %50 = load ptr, ptr %10, align 8
  %51 = call i32 @PQntuples(ptr noundef %50)
  %52 = icmp eq i32 %51, 1
  br i1 %52, label %53, label %166

53:                                               ; preds = %49
  %54 = load ptr, ptr %7, align 8
  call void @resetPQExpBuffer(ptr noundef %54)
  %55 = load i32, ptr %5, align 4
  switch i32 %55, label %146 [
    i32 0, label %56
    i32 1, label %60
  ]

56:                                               ; preds = %53
  %57 = load ptr, ptr %7, align 8
  %58 = load ptr, ptr %10, align 8
  %59 = call ptr @PQgetvalue(ptr noundef %58, i32 noundef 0, i32 noundef 0)
  call void @appendPQExpBufferStr(ptr noundef %57, ptr noundef %59)
  br label %146

60:                                               ; preds = %53
  call void @llvm.lifetime.start.p0(i64 8, ptr %12) #10
  %61 = load ptr, ptr %10, align 8
  %62 = call ptr @PQgetvalue(ptr noundef %61, i32 noundef 0, i32 noundef 0)
  store ptr %62, ptr %12, align 8
  call void @llvm.lifetime.start.p0(i64 8, ptr %13) #10
  %63 = load ptr, ptr %10, align 8
  %64 = call ptr @PQgetvalue(ptr noundef %63, i32 noundef 0, i32 noundef 1)
  store ptr %64, ptr %13, align 8
  call void @llvm.lifetime.start.p0(i64 8, ptr %14) #10
  %65 = load ptr, ptr %10, align 8
  %66 = call ptr @PQgetvalue(ptr noundef %65, i32 noundef 0, i32 noundef 2)
  store ptr %66, ptr %14, align 8
  call void @llvm.lifetime.start.p0(i64 8, ptr %15) #10
  %67 = load ptr, ptr %10, align 8
  %68 = call ptr @PQgetvalue(ptr noundef %67, i32 noundef 0, i32 noundef 3)
  store ptr %68, ptr %15, align 8
  call void @llvm.lifetime.start.p0(i64 8, ptr %16) #10
  %69 = load ptr, ptr %10, align 8
  %70 = call ptr @PQgetvalue(ptr noundef %69, i32 noundef 0, i32 noundef 4)
  store ptr %70, ptr %16, align 8
  call void @llvm.lifetime.start.p0(i64 8, ptr %17) #10
  %71 = load ptr, ptr %10, align 8
  %72 = call ptr @PQgetvalue(ptr noundef %71, i32 noundef 0, i32 noundef 5)
  store ptr %72, ptr %17, align 8
  %73 = load ptr, ptr %14, align 8
  %74 = getelementptr inbounds i8, ptr %73, i64 0
  %75 = load i8, ptr %74, align 1
  %76 = sext i8 %75 to i32
  switch i32 %76, label %79 [
    i32 118, label %77
  ]

77:                                               ; preds = %60
  %78 = load ptr, ptr %7, align 8
  call void @appendPQExpBufferStr(ptr noundef %78, ptr noundef @.str.229)
  br label %82

79:                                               ; preds = %60
  %80 = load ptr, ptr %12, align 8
  %81 = load ptr, ptr %13, align 8
  call void (i32, i32, ptr, ...) @pg_log_generic(i32 noundef 4, i32 noundef 0, ptr noundef @.str.230, ptr noundef %80, ptr noundef %81)
  store i8 0, ptr %8, align 1
  br label %82

82:                                               ; preds = %79, %77
  %83 = load ptr, ptr %7, align 8
  %84 = load ptr, ptr %12, align 8
  %85 = call ptr @fmtId(ptr noundef %84)
  call void (ptr, ptr, ...) @appendPQExpBuffer(ptr noundef %83, ptr noundef @.str.231, ptr noundef %85)
  %86 = load ptr, ptr %7, align 8
  %87 = load ptr, ptr %13, align 8
  %88 = call ptr @fmtId(ptr noundef %87)
  call void @appendPQExpBufferStr(ptr noundef %86, ptr noundef %88)
  %89 = load ptr, ptr %16, align 8
  %90 = icmp ne ptr %89, null
  br i1 %90, label %91, label %105

91:                                               ; preds = %82
  %92 = load ptr, ptr %16, align 8
  %93 = call i64 @strlen(ptr noundef %92) #11
  %94 = icmp ugt i64 %93, 2
  br i1 %94, label %95, label %105

95:                                               ; preds = %91
  %96 = load ptr, ptr %7, align 8
  call void @appendPQExpBufferStr(ptr noundef %96, ptr noundef @.str.232)
  %97 = load ptr, ptr %7, align 8
  %98 = load ptr, ptr %16, align 8
  %99 = load i32, ptr getelementptr inbounds nuw (%struct._psqlSettings, ptr @pset, i32 0, i32 1), align 8
  %100 = call zeroext i1 @standard_strings()
  %101 = call zeroext i1 @appendReloptionsArray(ptr noundef %97, ptr noundef %98, ptr noundef @.str.233, i32 noundef %99, i1 noundef zeroext %100)
  br i1 %101, label %103, label %102

102:                                              ; preds = %95
  call void (i32, i32, ptr, ...) @pg_log_generic(i32 noundef 4, i32 noundef 0, ptr noundef @.str.234)
  store i8 0, ptr %8, align 1
  br label %103

103:                                              ; preds = %102, %95
  %104 = load ptr, ptr %7, align 8
  call void @appendPQExpBufferChar(ptr noundef %104, i8 noundef signext 41)
  br label %105

105:                                              ; preds = %103, %91, %82
  %106 = load ptr, ptr %7, align 8
  %107 = load ptr, ptr %15, align 8
  call void (ptr, ptr, ...) @appendPQExpBuffer(ptr noundef %106, ptr noundef @.str.235, ptr noundef %107)
  %108 = load ptr, ptr %7, align 8
  %109 = getelementptr inbounds nuw %struct.PQExpBufferData, ptr %108, i32 0, i32 1
  %110 = load i64, ptr %109, align 8
  %111 = icmp ugt i64 %110, 0
  br i1 %111, label %112, label %133

112:                                              ; preds = %105
  %113 = load ptr, ptr %7, align 8
  %114 = getelementptr inbounds nuw %struct.PQExpBufferData, ptr %113, i32 0, i32 0
  %115 = load ptr, ptr %114, align 8
  %116 = load ptr, ptr %7, align 8
  %117 = getelementptr inbounds nuw %struct.PQExpBufferData, ptr %116, i32 0, i32 1
  %118 = load i64, ptr %117, align 8
  %119 = sub i64 %118, 1
  %120 = getelementptr inbounds nuw i8, ptr %115, i64 %119
  %121 = load i8, ptr %120, align 1
  %122 = sext i8 %121 to i32
  %123 = icmp eq i32 %122, 59
  br i1 %123, label %124, label %133

124:                                              ; preds = %112
  %125 = load ptr, ptr %7, align 8
  %126 = getelementptr inbounds nuw %struct.PQExpBufferData, ptr %125, i32 0, i32 0
  %127 = load ptr, ptr %126, align 8
  %128 = load ptr, ptr %7, align 8
  %129 = getelementptr inbounds nuw %struct.PQExpBufferData, ptr %128, i32 0, i32 1
  %130 = load i64, ptr %129, align 8
  %131 = add i64 %130, -1
  store i64 %131, ptr %129, align 8
  %132 = getelementptr inbounds nuw i8, ptr %127, i64 %131
  store i8 0, ptr %132, align 1
  br label %133

133:                                              ; preds = %124, %112, %105
  %134 = load ptr, ptr %17, align 8
  %135 = icmp ne ptr %134, null
  br i1 %135, label %136, label %145

136:                                              ; preds = %133
  %137 = load ptr, ptr %17, align 8
  %138 = getelementptr inbounds i8, ptr %137, i64 0
  %139 = load i8, ptr %138, align 1
  %140 = sext i8 %139 to i32
  %141 = icmp ne i32 %140, 0
  br i1 %141, label %142, label %145

142:                                              ; preds = %136
  %143 = load ptr, ptr %7, align 8
  %144 = load ptr, ptr %17, align 8
  call void (ptr, ptr, ...) @appendPQExpBuffer(ptr noundef %143, ptr noundef @.str.236, ptr noundef %144)
  br label %145

145:                                              ; preds = %142, %136, %133
  call void @llvm.lifetime.end.p0(i64 8, ptr %17) #10
  call void @llvm.lifetime.end.p0(i64 8, ptr %16) #10
  call void @llvm.lifetime.end.p0(i64 8, ptr %15) #10
  call void @llvm.lifetime.end.p0(i64 8, ptr %14) #10
  call void @llvm.lifetime.end.p0(i64 8, ptr %13) #10
  call void @llvm.lifetime.end.p0(i64 8, ptr %12) #10
  br label %146

146:                                              ; preds = %53, %145, %56
  %147 = load ptr, ptr %7, align 8
  %148 = getelementptr inbounds nuw %struct.PQExpBufferData, ptr %147, i32 0, i32 1
  %149 = load i64, ptr %148, align 8
  %150 = icmp ugt i64 %149, 0
  br i1 %150, label %151, label %165

151:                                              ; preds = %146
  %152 = load ptr, ptr %7, align 8
  %153 = getelementptr inbounds nuw %struct.PQExpBufferData, ptr %152, i32 0, i32 0
  %154 = load ptr, ptr %153, align 8
  %155 = load ptr, ptr %7, align 8
  %156 = getelementptr inbounds nuw %struct.PQExpBufferData, ptr %155, i32 0, i32 1
  %157 = load i64, ptr %156, align 8
  %158 = sub i64 %157, 1
  %159 = getelementptr inbounds nuw i8, ptr %154, i64 %158
  %160 = load i8, ptr %159, align 1
  %161 = sext i8 %160 to i32
  %162 = icmp ne i32 %161, 10
  br i1 %162, label %163, label %165

163:                                              ; preds = %151
  %164 = load ptr, ptr %7, align 8
  call void @appendPQExpBufferChar(ptr noundef %164, i8 noundef signext 10)
  br label %165

165:                                              ; preds = %163, %151, %146
  br label %168

166:                                              ; preds = %49, %40
  %167 = load ptr, ptr %10, align 8
  call void @minimal_error_message(ptr noundef %167)
  store i8 0, ptr %8, align 1
  br label %168

168:                                              ; preds = %166, %165
  %169 = load ptr, ptr %10, align 8
  call void @PQclear(ptr noundef %169)
  %170 = load ptr, ptr %9, align 8
  call void @destroyPQExpBuffer(ptr noundef %170)
  %171 = load i8, ptr %8, align 1, !range !4, !noundef !5
  %172 = trunc i8 %171 to i1
  store i1 %172, ptr %4, align 1
  store i32 1, ptr %11, align 4
  br label %173

173:                                              ; preds = %168, %38
  call void @llvm.lifetime.end.p0(i64 8, ptr %10) #10
  call void @llvm.lifetime.end.p0(i64 8, ptr %9) #10
  call void @llvm.lifetime.end.p0(i64 1, ptr %8) #10
  %174 = load i1, ptr %4, align 1
  ret i1 %174
}