; Function Attrs: nounwind uwtable
define internal fastcc noundef zeroext i1 @get_create_object_cmd(i32 noundef range(i32 0, 2) %0, i32 noundef %1, ptr noundef %2) unnamed_addr #0 {
  %4 = tail call ptr @createPQExpBuffer() #16
  %trunc = trunc nuw i32 %0 to i1
  %5 = load i32, ptr getelementptr inbounds nuw (i8, ptr @pset, i64 332), align 4
  %6 = icmp sgt i32 %5, 90399
  %.str.227..str.228 = select i1 %6, ptr @.str.227, ptr @.str.228
  %.str.227.sink = select i1 %trunc, ptr %.str.227..str.228, ptr @.str.226
  tail call void (ptr, ptr, ...) @printfPQExpBuffer(ptr noundef %4, ptr noundef nonnull %.str.227.sink, i32 noundef %1) #16
  %7 = load ptr, ptr %4, align 8
  %8 = load i32, ptr getelementptr inbounds nuw (i8, ptr @pset, i64 424), align 8
  %.not.i = icmp eq i32 %8, 0
  br i1 %.not.i, label %21, label %9

9:                                                ; preds = %3
  %10 = tail call i32 (ptr, ...) @pg_printf(ptr noundef nonnull @.str.222, ptr noundef %7) #16
  %11 = load ptr, ptr @stdout, align 8
  %12 = tail call i32 @fflush(ptr noundef %11)
  %13 = load ptr, ptr getelementptr inbounds nuw (i8, ptr @pset, i64 376), align 8
  %.not4.i = icmp eq ptr %13, null
  br i1 %.not4.i, label %18, label %14

14:                                               ; preds = %9
  %15 = tail call i32 (ptr, ptr, ...) @pg_fprintf(ptr noundef nonnull %13, ptr noundef nonnull @.str.222, ptr noundef %7) #16
  %16 = load ptr, ptr getelementptr inbounds nuw (i8, ptr @pset, i64 376), align 8
  %17 = tail call i32 @fflush(ptr noundef %16)
  br label %18

18:                                               ; preds = %14, %9
  %19 = load i32, ptr getelementptr inbounds nuw (i8, ptr @pset, i64 424), align 8
  %20 = icmp eq i32 %19, 2
  br i1 %20, label %echo_hidden_command.exit, label %._crit_edge

._crit_edge:                                      ; preds = %18
  %.pre = load ptr, ptr %4, align 8
  br label %21

21:                                               ; preds = %._crit_edge, %3
  %22 = phi ptr [ %.pre, %._crit_edge ], [ %7, %3 ]
  %23 = load ptr, ptr @pset, align 8
  %24 = tail call ptr @PQexec(ptr noundef %23, ptr noundef %22) #16
  %25 = tail call i32 @PQresultStatus(ptr noundef %24) #16
  %26 = icmp eq i32 %25, 2
  br i1 %26, label %27, label %79

27:                                               ; preds = %21
  %28 = tail call i32 @PQntuples(ptr noundef %24) #16
  %29 = icmp eq i32 %28, 1
  br i1 %29, label %30, label %79

30:                                               ; preds = %27
  tail call void @resetPQExpBuffer(ptr noundef %2) #16
  %31 = tail call ptr @PQgetvalue(ptr noundef %24, i32 noundef 0, i32 noundef 0) #16
  br i1 %trunc, label %33, label %32

32:                                               ; preds = %30
  tail call void @appendPQExpBufferStr(ptr noundef %2, ptr noundef %31) #16
  br label %70

33:                                               ; preds = %30
  %34 = tail call ptr @PQgetvalue(ptr noundef %24, i32 noundef 0, i32 noundef 1) #16
  %35 = tail call ptr @PQgetvalue(ptr noundef %24, i32 noundef 0, i32 noundef 2) #16
  %36 = tail call ptr @PQgetvalue(ptr noundef %24, i32 noundef 0, i32 noundef 3) #16
  %37 = tail call ptr @PQgetvalue(ptr noundef %24, i32 noundef 0, i32 noundef 4) #16
  %38 = tail call ptr @PQgetvalue(ptr noundef %24, i32 noundef 0, i32 noundef 5) #16
  %39 = load i8, ptr %35, align 1
  %cond = icmp eq i8 %39, 118
  br i1 %cond, label %40, label %41

40:                                               ; preds = %33
  tail call void @appendPQExpBufferStr(ptr noundef %2, ptr noundef nonnull @.str.229) #16
  br label %42

41:                                               ; preds = %33
  tail call void (i32, i32, ptr, ...) @pg_log_generic(i32 noundef 4, i32 noundef 0, ptr noundef nonnull @.str.230, ptr noundef %31, ptr noundef %34) #16
  br label %42

42:                                               ; preds = %41, %40
  %43 = tail call ptr @fmtId(ptr noundef %31) #16
  tail call void (ptr, ptr, ...) @appendPQExpBuffer(ptr noundef %2, ptr noundef nonnull @.str.231, ptr noundef %43) #16
  %44 = tail call ptr @fmtId(ptr noundef %34) #16
  tail call void @appendPQExpBufferStr(ptr noundef %2, ptr noundef %44) #16
  %.not = icmp eq ptr %37, null
  br i1 %.not, label %54, label %45

45:                                               ; preds = %42
  %46 = tail call i64 @strlen(ptr noundef nonnull dereferenceable(1) %37) #17
  %47 = icmp ugt i64 %46, 2
  br i1 %47, label %48, label %54

48:                                               ; preds = %45
  tail call void @appendPQExpBufferStr(ptr noundef %2, ptr noundef nonnull @.str.232) #16
  %49 = load i32, ptr getelementptr inbounds nuw (i8, ptr @pset, i64 8), align 8
  %50 = tail call zeroext i1 @standard_strings() #16
  %51 = tail call zeroext i1 @appendReloptionsArray(ptr noundef %2, ptr noundef nonnull %37, ptr noundef nonnull @.str.233, i32 noundef %49, i1 noundef zeroext %50) #16
  br i1 %51, label %53, label %52

52:                                               ; preds = %48
  tail call void (i32, i32, ptr, ...) @pg_log_generic(i32 noundef 4, i32 noundef 0, ptr noundef nonnull @.str.234) #16
  br label %53

53:                                               ; preds = %52, %48
  %.3 = phi i1 [ %cond, %48 ], [ false, %52 ]
  tail call void @appendPQExpBufferChar(ptr noundef %2, i8 noundef signext 41) #16
  br label %54

54:                                               ; preds = %53, %45, %42
  %.2 = phi i1 [ %.3, %53 ], [ %cond, %45 ], [ %cond, %42 ]
  tail call void (ptr, ptr, ...) @appendPQExpBuffer(ptr noundef %2, ptr noundef nonnull @.str.235, ptr noundef %36) #16
  %55 = getelementptr inbounds nuw i8, ptr %2, i64 8
  %56 = load i64, ptr %55, align 8
  %.not61 = icmp eq i64 %56, 0
  br i1 %.not61, label %66, label %57

57:                                               ; preds = %54
  %58 = load ptr, ptr %2, align 8
  %59 = getelementptr i8, ptr %58, i64 %56
  %60 = getelementptr i8, ptr %59, i64 -1
  %61 = load i8, ptr %60, align 1
  %62 = icmp eq i8 %61, 59
  br i1 %62, label %63, label %66

63:                                               ; preds = %57
  %64 = add i64 %56, -1
  store i64 %64, ptr %55, align 8
  %65 = getelementptr inbounds nuw i8, ptr %58, i64 %64
  store i8 0, ptr %65, align 1
  br label %66

66:                                               ; preds = %63, %57, %54
  %.not62 = icmp eq ptr %38, null
  br i1 %.not62, label %70, label %67

67:                                               ; preds = %66
  %68 = load i8, ptr %38, align 1
  %.not63 = icmp eq i8 %68, 0
  br i1 %.not63, label %70, label %69

69:                                               ; preds = %67
  tail call void (ptr, ptr, ...) @appendPQExpBuffer(ptr noundef nonnull %2, ptr noundef nonnull @.str.236, ptr noundef nonnull %38) #16
  br label %70

70:                                               ; preds = %66, %67, %69, %32
  %.055 = phi i1 [ true, %32 ], [ %.2, %69 ], [ %.2, %67 ], [ %.2, %66 ]
  %71 = getelementptr inbounds nuw i8, ptr %2, i64 8
  %72 = load i64, ptr %71, align 8
  %.not64 = icmp eq i64 %72, 0
  br i1 %.not64, label %80, label %73

73:                                               ; preds = %70
  %74 = load ptr, ptr %2, align 8
  %75 = getelementptr i8, ptr %74, i64 %72
  %76 = getelementptr i8, ptr %75, i64 -1
  %77 = load i8, ptr %76, align 1
  %.not65 = icmp eq i8 %77, 10
  br i1 %.not65, label %80, label %78

78:                                               ; preds = %73
  tail call void @appendPQExpBufferChar(ptr noundef nonnull %2, i8 noundef signext 10) #16
  br label %80

79:                                               ; preds = %27, %21
  tail call fastcc void @minimal_error_message(ptr noundef %24)
  br label %80

80:                                               ; preds = %70, %73, %78, %79
  %.4 = phi i1 [ %.055, %78 ], [ %.055, %73 ], [ %.055, %70 ], [ false, %79 ]
  tail call void @PQclear(ptr noundef %24) #16
  br label %echo_hidden_command.exit

echo_hidden_command.exit:                         ; preds = %18, %80
  %.0 = phi i1 [ %.4, %80 ], [ false, %18 ]
  tail call void @destroyPQExpBuffer(ptr noundef nonnull %4) #16
  ret i1 %.0
}